target datalayout = "e-m:e-p270:32:32-p271:32:32-p272:64:64-i64:64-i128:128-f80:128-n8:16:32:64-S128"
target triple = "x86_64-pc-linux-gnu"

; Function Attrs: nounwind uwtable
define void @ff_spdif_bswap_buf16(ptr noundef %0, ptr noundef %1, i32 noundef %2) #0 {
  %4 = alloca ptr, align 8
  %5 = alloca ptr, align 8
  %6 = alloca i32, align 4
  %7 = alloca i32, align 4
  store ptr %0, ptr %4, align 8, !tbaa !4
  store ptr %1, ptr %5, align 8, !tbaa !4
  store i32 %2, ptr %6, align 4, !tbaa !9
  call void @llvm.lifetime.start.p0(i64 4, ptr %7) #3
  store i32 0, ptr %7, align 4, !tbaa !9
  br label %8

8:                                                ; preds = %110, %3
  %9 = load i32, ptr %7, align 4, !tbaa !9
  %10 = add nsw i32 %9, 8
  %11 = load i32, ptr %6, align 4, !tbaa !9
  %12 = icmp sle i32 %10, %11
  br i1 %12, label %13, label %113

13:                                               ; preds = %8
  %14 = load ptr, ptr %5, align 8, !tbaa !4
  %15 = load i32, ptr %7, align 4, !tbaa !9
  %16 = add nsw i32 %15, 0
  %17 = sext i32 %16 to i64
  %18 = getelementptr inbounds i16, ptr %14, i64 %17
  %19 = load i16, ptr %18, align 2, !tbaa !11
  %20 = call zeroext i16 @av_bswap16(i16 noundef zeroext %19) #4
  %21 = load ptr, ptr %4, align 8, !tbaa !4
  %22 = load i32, ptr %7, align 4, !tbaa !9
  %23 = add nsw i32 %22, 0
  %24 = sext i32 %23 to i64
  %25 = getelementptr inbounds i16, ptr %21, i64 %24
  store i16 %20, ptr %25, align 2, !tbaa !11
  %26 = load ptr, ptr %5, align 8, !tbaa !4
  %27 = load i32, ptr %7, align 4, !tbaa !9
  %28 = add nsw i32 %27, 1
  %29 = sext i32 %28 to i64
  %30 = getelementptr inbounds i16, ptr %26, i64 %29
  %31 = load i16, ptr %30, align 2, !tbaa !11
  %32 = call zeroext i16 @av_bswap16(i16 noundef zeroext %31) #4
  %33 = load ptr, ptr %4, align 8, !tbaa !4
  %34 = load i32, ptr %7, align 4, !tbaa !9
  %35 = add nsw i32 %34, 1
  %36 = sext i32 %35 to i64
  %37 = getelementptr inbounds i16, ptr %33, i64 %36
  store i16 %32, ptr %37, align 2, !tbaa !11
  %38 = load ptr, ptr %5, align 8, !tbaa !4
  %39 = load i32, ptr %7, align 4, !tbaa !9
  %40 = add nsw i32 %39, 2
  %41 = sext i32 %40 to i64
  %42 = getelementptr inbounds i16, ptr %38, i64 %41
  %43 = load i16, ptr %42, align 2, !tbaa !11
  %44 = call zeroext i16 @av_bswap16(i16 noundef zeroext %43) #4
  %45 = load ptr, ptr %4, align 8, !tbaa !4
  %46 = load i32, ptr %7, align 4, !tbaa !9
  %47 = add nsw i32 %46, 2
  %48 = sext i32 %47 to i64
  %49 = getelementptr inbounds i16, ptr %45, i64 %48
  store i16 %44, ptr %49, align 2, !tbaa !11
  %50 = load ptr, ptr %5, align 8, !tbaa !4
  %51 = load i32, ptr %7, align 4, !tbaa !9
  %52 = add nsw i32 %51, 3
  %53 = sext i32 %52 to i64
  %54 = getelementptr inbounds i16, ptr %50, i64 %53
  %55 = load i16, ptr %54, align 2, !tbaa !11
  %56 = call zeroext i16 @av_bswap16(i16 noundef zeroext %55) #4
  %57 = load ptr, ptr %4, align 8, !tbaa !4
  %58 = load i32, ptr %7, align 4, !tbaa !9
  %59 = add nsw i32 %58, 3
  %60 = sext i32 %59 to i64
  %61 = getelementptr inbounds i16, ptr %57, i64 %60
  store i16 %56, ptr %61, align 2, !tbaa !11
  %62 = load ptr, ptr %5, align 8, !tbaa !4
  %63 = load i32, ptr %7, align 4, !tbaa !9
  %64 = add nsw i32 %63, 4
  %65 = sext i32 %64 to i64
  %66 = getelementptr inbounds i16, ptr %62, i64 %65
  %67 = load i16, ptr %66, align 2, !tbaa !11
  %68 = call zeroext i16 @av_bswap16(i16 noundef zeroext %67) #4
  %69 = load ptr, ptr %4, align 8, !tbaa !4
  %70 = load i32, ptr %7, align 4, !tbaa !9
  %71 = add nsw i32 %70, 4
  %72 = sext i32 %71 to i64
  %73 = getelementptr inbounds i16, ptr %69, i64 %72
  store i16 %68, ptr %73, align 2, !tbaa !11
  %74 = load ptr, ptr %5, align 8, !tbaa !4
  %75 = load i32, ptr %7, align 4, !tbaa !9
  %76 = add nsw i32 %75, 5
  %77 = sext i32 %76 to i64
  %78 = getelementptr inbounds i16, ptr %74, i64 %77
  %79 = load i16, ptr %78, align 2, !tbaa !11
  %80 = call zeroext i16 @av_bswap16(i16 noundef zeroext %79) #4
  %81 = load ptr, ptr %4, align 8, !tbaa !4
  %82 = load i32, ptr %7, align 4, !tbaa !9
  %83 = add nsw i32 %82, 5
  %84 = sext i32 %83 to i64
  %85 = getelementptr inbounds i16, ptr %81, i64 %84
  store i16 %80, ptr %85, align 2, !tbaa !11
  %86 = load ptr, ptr %5, align 8, !tbaa !4
  %87 = load i32, ptr %7, align 4, !tbaa !9
  %88 = add nsw i32 %87, 6
  %89 = sext i32 %88 to i64
  %90 = getelementptr inbounds i16, ptr %86, i64 %89
  %91 = load i16, ptr %90, align 2, !tbaa !11
  %92 = call zeroext i16 @av_bswap16(i16 noundef zeroext %91) #4
  %93 = load ptr, ptr %4, align 8, !tbaa !4
  %94 = load i32, ptr %7, align 4, !tbaa !9
  %95 = add nsw i32 %94, 6
  %96 = sext i32 %95 to i64
  %97 = getelementptr inbounds i16, ptr %93, i64 %96
  store i16 %92, ptr %97, align 2, !tbaa !11
  %98 = load ptr, ptr %5, align 8, !tbaa !4
  %99 = load i32, ptr %7, align 4, !tbaa !9
  %100 = add nsw i32 %99, 7
  %101 = sext i32 %100 to i64
  %102 = getelementptr inbounds i16, ptr %98, i64 %101
  %103 = load i16, ptr %102, align 2, !tbaa !11
  %104 = call zeroext i16 @av_bswap16(i16 noundef zeroext %103) #4
  %105 = load ptr, ptr %4, align 8, !tbaa !4
  %106 = load i32, ptr %7, align 4, !tbaa !9
  %107 = add nsw i32 %106, 7
  %108 = sext i32 %107 to i64
  %109 = getelementptr inbounds i16, ptr %105, i64 %108
  store i16 %104, ptr %109, align 2, !tbaa !11
  br label %110

110:                                              ; preds = %13
  %111 = load i32, ptr %7, align 4, !tbaa !9
  %112 = add nsw i32 %111, 8
  store i32 %112, ptr %7, align 4, !tbaa !9
  br label %8, !llvm.loop !13

113:                                              ; preds = %8
  br label %114

114:                                              ; preds = %131, %113
  %115 = load i32, ptr %7, align 4, !tbaa !9
  %116 = load i32, ptr %6, align 4, !tbaa !9
  %117 = icmp slt i32 %115, %116
  br i1 %117, label %118, label %134

118:                                              ; preds = %114
  %119 = load ptr, ptr %5, align 8, !tbaa !4
  %120 = load i32, ptr %7, align 4, !tbaa !9
  %121 = add nsw i32 %120, 0
  %122 = sext i32 %121 to i64
  %123 = getelementptr inbounds i16, ptr %119, i64 %122
  %124 = load i16, ptr %123, align 2, !tbaa !11
  %125 = call zeroext i16 @av_bswap16(i16 noundef zeroext %124) #4
  %126 = load ptr, ptr %4, align 8, !tbaa !4
  %127 = load i32, ptr %7, align 4, !tbaa !9
  %128 = add nsw i32 %127, 0
  %129 = sext i32 %128 to i64
  %130 = getelementptr inbounds i16, ptr %126, i64 %129
  store i16 %125, ptr %130, align 2, !tbaa !11
  br label %131

131:                                              ; preds = %118
  %132 = load i32, ptr %7, align 4, !tbaa !9
  %133 = add nsw i32 %132, 1
  store i32 %133, ptr %7, align 4, !tbaa !9
  br label %114, !llvm.loop !15

134:                                              ; preds = %114
  call void @llvm.lifetime.end.p0(i64 4, ptr %7) #3
  ret void
}

; Function Attrs: nocallback nofree nosync nounwind willreturn memory(argmem: readwrite)
declare void @llvm.lifetime.start.p0(i64 immarg, ptr captures(none)) #1

; Function Attrs: alwaysinline nounwind willreturn memory(none) uwtable
define internal zeroext i16 @av_bswap16(i16 noundef zeroext %0) #2 {
  %2 = alloca i16, align 2
  store i16 %0, ptr %2, align 2, !tbaa !11
  %3 = load i16, ptr %2, align 2, !tbaa !11
  %4 = zext i16 %3 to i32
  %5 = ashr i32 %4, 8
  %6 = load i16, ptr %2, align 2, !tbaa !11
  %7 = zext i16 %6 to i32
  %8 = shl i32 %7, 8
  %9 = or i32 %5, %8
  %10 = trunc i32 %9 to i16
  store i16 %10, ptr %2, align 2, !tbaa !11
  %11 = load i16, ptr %2, align 2, !tbaa !11
  ret i16 %11
}

; Function Attrs: nocallback nofree nosync nounwind willreturn memory(argmem: readwrite)
declare void @llvm.lifetime.end.p0(i64 immarg, ptr captures(none)) #1


!llvm.module.flags = !{!0, !1, !2, !3}

!0 = !{i32 1, !"wchar_size", i32 4}
!1 = !{i32 8, !"PIC Level", i32 2}
!2 = !{i32 7, !"uwtable", i32 2}
!3 = !{i32 1, !"override-stack-alignment", i32 16}
!4 = !{!5, !5, i64 0}
!5 = !{!"p1 short", !6, i64 0}
!6 = !{!"any pointer", !7, i64 0}
!7 = !{!"omnipotent char", !8, i64 0}
!8 = !{!"Simple C/C++ TBAA"}
!9 = !{!10, !10, i64 0}
!10 = !{!"int", !7, i64 0}
!11 = !{!12, !12, i64 0}
!12 = !{!"short", !7, i64 0}
!13 = distinct !{!13, !14}
!14 = !{!"llvm.loop.mustprogress"}
!15 = distinct !{!15, !14}
